target datalayout = "e-m:e-p270:32:32-p271:32:32-p272:64:64-i64:64-i128:128-f80:128-n8:16:32:64-S128"
target triple = "x86_64-pc-linux-gnu"

@X509_NAME_it.local_it = internal constant { i8, [7 x i8], i64, ptr, i64, ptr, i64, ptr } { i8 4, [7 x i8] zeroinitializer, i64 16, ptr null, i64 0, ptr @x509_name_ff, i64 0, ptr @.str.1 }, align 8

; Function Attrs: nounwind uwtable
define ptr @X509_NAME_it() #0 {
  ret ptr @X509_NAME_it.local_it
}

; Function Attrs: nounwind uwtable
define void @X509_NAME_free(ptr noundef %0) #0 {
  %2 = alloca ptr, align 8
  store ptr %0, ptr %2, align 8, !tbaa !16
  %3 = load ptr, ptr %2, align 8, !tbaa !16
  %4 = call ptr @X509_NAME_it()
  call void @ASN1_item_free(ptr noundef %3, ptr noundef %4)
  ret void
}

; Function Attrs: nounwind uwtable
define ptr @X509_NAME_dup(ptr noundef %0) #0 {
  %2 = alloca ptr, align 8
  store ptr %0, ptr %2, align 8, !tbaa !16
  %3 = call ptr @X509_NAME_it()
  %4 = load ptr, ptr %2, align 8, !tbaa !16
  %5 = call ptr @ASN1_item_dup(ptr noundef %3, ptr noundef %4)
  ret ptr %5
}

; Function Attrs: nounwind uwtable
define i32 @X509_NAME_set(ptr noundef %0, ptr noundef %1) #0 {
  %3 = alloca i32, align 4
  %4 = alloca ptr, align 8
  %5 = alloca ptr, align 8
  %6 = alloca ptr, align 8
  %7 = alloca i32, align 4
  store ptr %0, ptr %4, align 8, !tbaa !14
  store ptr %1, ptr %5, align 8, !tbaa !16
  call void @llvm.lifetime.start.p0(i64 8, ptr %6) #6
  %8 = load ptr, ptr %4, align 8, !tbaa !14
  %9 = load ptr, ptr %8, align 8, !tbaa !16
  %10 = load ptr, ptr %5, align 8, !tbaa !16
  %11 = icmp eq ptr %9, %10
  br i1 %11, label %12, label %17

12:                                               ; preds = %2
  %13 = load ptr, ptr %4, align 8, !tbaa !14
  %14 = load ptr, ptr %13, align 8, !tbaa !16
  %15 = icmp ne ptr %14, null
  %16 = zext i1 %15 to i32
  store i32 %16, ptr %3, align 4
  store i32 1, ptr %7, align 4
  br label %27

17:                                               ; preds = %2
  %18 = load ptr, ptr %5, align 8, !tbaa !16
  %19 = call ptr @X509_NAME_dup(ptr noundef %18)
  store ptr %19, ptr %6, align 8, !tbaa !16
  %20 = icmp eq ptr %19, null
  br i1 %20, label %21, label %22

21:                                               ; preds = %17
  store i32 0, ptr %3, align 4
  store i32 1, ptr %7, align 4
  br label %27

22:                                               ; preds = %17
  %23 = load ptr, ptr %4, align 8, !tbaa !14
  %24 = load ptr, ptr %23, align 8, !tbaa !16
  call void @X509_NAME_free(ptr noundef %24)
  %25 = load ptr, ptr %6, align 8, !tbaa !16
  %26 = load ptr, ptr %4, align 8, !tbaa !14
  store ptr %25, ptr %26, align 8, !tbaa !16
  store i32 1, ptr %3, align 4
  store i32 1, ptr %7, align 4
  br label %27

27:                                               ; preds = %22, %21, %12
  call void @llvm.lifetime.end.p0(i64 8, ptr %6) #6
  %28 = load i32, ptr %3, align 4
  ret i32 %28
}