; Function Attrs: nounwind uwtable
define range(i32 0, 2) i32 @X509_NAME_set(ptr noundef captures(none) %0, ptr noundef %1) local_unnamed_addr #1 {
  %3 = load ptr, ptr %0, align 8, !tbaa !3
  %4 = icmp eq ptr %3, %1
  br i1 %4, label %5, label %8

5:                                                ; preds = %2
  %6 = icmp ne ptr %1, null
  %7 = zext i1 %6 to i32
  br label %13

8:                                                ; preds = %2
  %9 = tail call ptr @ASN1_item_dup(ptr noundef nonnull @X509_NAME_it.local_it, ptr noundef %1) #6
  %10 = icmp eq ptr %9, null
  br i1 %10, label %13, label %11

11:                                               ; preds = %8
  %12 = load ptr, ptr %0, align 8, !tbaa !3
  tail call void @ASN1_item_free(ptr noundef %12, ptr noundef nonnull @X509_NAME_it.local_it) #6
  store ptr %9, ptr %0, align 8, !tbaa !3
  br label %13

13:                                               ; preds = %8, %11, %5
  %.0 = phi i32 [ %7, %5 ], [ 1, %11 ], [ 0, %8 ]
  ret i32 %.0
}